#include <math.h>
#include <stdio.h>
#include <stdlib.h>
#include <string.h>
#include <iostream>
using namespace std;

/*
 * air.cpp
 *
 *  Created on: 2012-11-10
 *      Author: ada
 */
int main()
{
	int a , b , c ,d , e ,words[6];
	for(a = 1 ; a<= 5 ; a++)
	{
		for(b = 1 ; b<= 5 ; b++)
		{
			if(b == a)
				continue;
			for(c = 1 ; c<= 5 ;c++)
			{
				if(c == a || c == b)
					continue;
				for(d = 1 ; d<= 5 ; d++)
				{
					if(d == c || d == b || d == a)
						continue;
					for(e = 1 ; e<= 5 ; e++)
					{
						if(e == a || e == b || e == c || e == d)
							continue;
						words[a] = (e == 1);
						words[b] = (b == 2);
	                    words[c] = (a == 5);
	                    words[d] = (c != 1);
	                    words[e] = (d == 1);
						if(words[1]+words[2] == 2 && words[3]+words[4]+words[5] == 0 &&( e!=2)&&(e!=3))
						{
							cout <<a <<" " << b <<" " << c<<" " <<d <<" "<< e;
						}
					}
				}
			}
		}
	}
}
