; ModuleID = '41/664.cpp'
source_filename = "41/664.cpp"
target datalayout = "e-m:e-p270:32:32-p271:32:32-p272:64:64-i64:64-f80:128-n8:16:32:64-S128"
target triple = "x86_64-pc-linux-gnu"

%"class.std::ios_base::Init" = type { i8 }
%"class.std::basic_ostream" = type { i32 (...)**, %"class.std::basic_ios" }
%"class.std::basic_ios" = type { %"class.std::ios_base", %"class.std::basic_ostream"*, i8, i8, %"class.std::basic_streambuf"*, %"class.std::ctype"*, %"class.std::num_put"*, %"class.std::num_get"* }
%"class.std::ios_base" = type { i32 (...)**, i64, i64, i32, i32, i32, %"struct.std::ios_base::_Callback_list"*, %"struct.std::ios_base::_Words", [8 x %"struct.std::ios_base::_Words"], i32, %"struct.std::ios_base::_Words"*, %"class.std::locale" }
%"struct.std::ios_base::_Callback_list" = type { %"struct.std::ios_base::_Callback_list"*, void (i32, %"class.std::ios_base"*, i32)*, i32, i32 }
%"struct.std::ios_base::_Words" = type { i8*, i64 }
%"class.std::locale" = type { %"class.std::locale::_Impl"* }
%"class.std::locale::_Impl" = type { i32, %"class.std::locale::facet"**, i64, %"class.std::locale::facet"**, i8** }
%"class.std::locale::facet" = type <{ i32 (...)**, i32, [4 x i8] }>
%"class.std::basic_streambuf" = type { i32 (...)**, i8*, i8*, i8*, i8*, i8*, i8*, %"class.std::locale" }
%"class.std::ctype" = type <{ %"class.std::locale::facet.base", [4 x i8], %struct.__locale_struct*, i8, [7 x i8], i32*, i32*, i16*, i8, [256 x i8], [256 x i8], i8, [6 x i8] }>
%"class.std::locale::facet.base" = type <{ i32 (...)**, i32 }>
%struct.__locale_struct = type { [13 x %struct.__locale_data*], i16*, i32*, i32*, [13 x i8*] }
%struct.__locale_data = type opaque
%"class.std::num_put" = type { %"class.std::locale::facet.base", [4 x i8] }
%"class.std::num_get" = type { %"class.std::locale::facet.base", [4 x i8] }

@_ZStL8__ioinit = internal global %"class.std::ios_base::Init" zeroinitializer, align 1
@__dso_handle = external hidden global i8
@_ZSt4cout = external dso_local global %"class.std::basic_ostream", align 8
@.str = private unnamed_addr constant [2 x i8] c" \00", align 1
@llvm.global_ctors = appending global [1 x { i32, void ()*, i8* }] [{ i32, void ()*, i8* } { i32 65535, void ()* @_GLOBAL__sub_I_664.cpp, i8* null }]

; Function Attrs: noinline uwtable
define internal void @__cxx_global_var_init() #0 section ".text.startup" {
  call void @_ZNSt8ios_base4InitC1Ev(%"class.std::ios_base::Init"* @_ZStL8__ioinit)
  %1 = call i32 @__cxa_atexit(void (i8*)* bitcast (void (%"class.std::ios_base::Init"*)* @_ZNSt8ios_base4InitD1Ev to void (i8*)*), i8* getelementptr inbounds (%"class.std::ios_base::Init", %"class.std::ios_base::Init"* @_ZStL8__ioinit, i32 0, i32 0), i8* @__dso_handle) #3
  ret void
}

declare dso_local void @_ZNSt8ios_base4InitC1Ev(%"class.std::ios_base::Init"*) unnamed_addr #1

; Function Attrs: nounwind
declare dso_local void @_ZNSt8ios_base4InitD1Ev(%"class.std::ios_base::Init"*) unnamed_addr #2

; Function Attrs: nounwind
declare dso_local i32 @__cxa_atexit(void (i8*)*, i8*, i8*) #3

; Function Attrs: noinline norecurse uwtable
define dso_local i32 @main() #4 {
  %1 = alloca i32, align 4
  %2 = alloca i32, align 4
  %3 = alloca i32, align 4
  %4 = alloca i32, align 4
  %5 = alloca i32, align 4
  %6 = alloca i32, align 4
  %7 = alloca [6 x i32], align 16
  store i32 0, i32* %1, align 4
  store i32 1, i32* %2, align 4
  br label %8

8:                                                ; preds = %156, %0
  %9 = load i32, i32* %2, align 4
  %10 = icmp sle i32 %9, 5
  br i1 %10, label %11, label %159

11:                                               ; preds = %8
  store i32 1, i32* %3, align 4
  br label %12

12:                                               ; preds = %152, %11
  %13 = load i32, i32* %3, align 4
  %14 = icmp sle i32 %13, 5
  br i1 %14, label %15, label %155

15:                                               ; preds = %12
  %16 = load i32, i32* %3, align 4
  %17 = load i32, i32* %2, align 4
  %18 = icmp eq i32 %16, %17
  br i1 %18, label %19, label %20

19:                                               ; preds = %15
  br label %152

20:                                               ; preds = %15
  store i32 1, i32* %4, align 4
  br label %21

21:                                               ; preds = %148, %20
  %22 = load i32, i32* %4, align 4
  %23 = icmp sle i32 %22, 5
  br i1 %23, label %24, label %151

24:                                               ; preds = %21
  %25 = load i32, i32* %4, align 4
  %26 = load i32, i32* %2, align 4
  %27 = icmp eq i32 %25, %26
  br i1 %27, label %32, label %28

28:                                               ; preds = %24
  %29 = load i32, i32* %4, align 4
  %30 = load i32, i32* %3, align 4
  %31 = icmp eq i32 %29, %30
  br i1 %31, label %32, label %33

32:                                               ; preds = %28, %24
  br label %148

33:                                               ; preds = %28
  store i32 1, i32* %5, align 4
  br label %34

34:                                               ; preds = %144, %33
  %35 = load i32, i32* %5, align 4
  %36 = icmp sle i32 %35, 5
  br i1 %36, label %37, label %147

37:                                               ; preds = %34
  %38 = load i32, i32* %5, align 4
  %39 = load i32, i32* %4, align 4
  %40 = icmp eq i32 %38, %39
  br i1 %40, label %49, label %41

41:                                               ; preds = %37
  %42 = load i32, i32* %5, align 4
  %43 = load i32, i32* %3, align 4
  %44 = icmp eq i32 %42, %43
  br i1 %44, label %49, label %45

45:                                               ; preds = %41
  %46 = load i32, i32* %5, align 4
  %47 = load i32, i32* %2, align 4
  %48 = icmp eq i32 %46, %47
  br i1 %48, label %49, label %50

49:                                               ; preds = %45, %41, %37
  br label %144

50:                                               ; preds = %45
  store i32 1, i32* %6, align 4
  br label %51

51:                                               ; preds = %140, %50
  %52 = load i32, i32* %6, align 4
  %53 = icmp sle i32 %52, 5
  br i1 %53, label %54, label %143

54:                                               ; preds = %51
  %55 = load i32, i32* %6, align 4
  %56 = load i32, i32* %2, align 4
  %57 = icmp eq i32 %55, %56
  br i1 %57, label %70, label %58

58:                                               ; preds = %54
  %59 = load i32, i32* %6, align 4
  %60 = load i32, i32* %3, align 4
  %61 = icmp eq i32 %59, %60
  br i1 %61, label %70, label %62

62:                                               ; preds = %58
  %63 = load i32, i32* %6, align 4
  %64 = load i32, i32* %4, align 4
  %65 = icmp eq i32 %63, %64
  br i1 %65, label %70, label %66

66:                                               ; preds = %62
  %67 = load i32, i32* %6, align 4
  %68 = load i32, i32* %5, align 4
  %69 = icmp eq i32 %67, %68
  br i1 %69, label %70, label %71

70:                                               ; preds = %66, %62, %58, %54
  br label %140

71:                                               ; preds = %66
  %72 = load i32, i32* %6, align 4
  %73 = icmp eq i32 %72, 1
  %74 = zext i1 %73 to i32
  %75 = load i32, i32* %2, align 4
  %76 = sext i32 %75 to i64
  %77 = getelementptr inbounds [6 x i32], [6 x i32]* %7, i64 0, i64 %76
  store i32 %74, i32* %77, align 4
  %78 = load i32, i32* %3, align 4
  %79 = icmp eq i32 %78, 2
  %80 = zext i1 %79 to i32
  %81 = load i32, i32* %3, align 4
  %82 = sext i32 %81 to i64
  %83 = getelementptr inbounds [6 x i32], [6 x i32]* %7, i64 0, i64 %82
  store i32 %80, i32* %83, align 4
  %84 = load i32, i32* %2, align 4
  %85 = icmp eq i32 %84, 5
  %86 = zext i1 %85 to i32
  %87 = load i32, i32* %4, align 4
  %88 = sext i32 %87 to i64
  %89 = getelementptr inbounds [6 x i32], [6 x i32]* %7, i64 0, i64 %88
  store i32 %86, i32* %89, align 4
  %90 = load i32, i32* %4, align 4
  %91 = icmp ne i32 %90, 1
  %92 = zext i1 %91 to i32
  %93 = load i32, i32* %5, align 4
  %94 = sext i32 %93 to i64
  %95 = getelementptr inbounds [6 x i32], [6 x i32]* %7, i64 0, i64 %94
  store i32 %92, i32* %95, align 4
  %96 = load i32, i32* %5, align 4
  %97 = icmp eq i32 %96, 1
  %98 = zext i1 %97 to i32
  %99 = load i32, i32* %6, align 4
  %100 = sext i32 %99 to i64
  %101 = getelementptr inbounds [6 x i32], [6 x i32]* %7, i64 0, i64 %100
  store i32 %98, i32* %101, align 4
  %102 = getelementptr inbounds [6 x i32], [6 x i32]* %7, i64 0, i64 1
  %103 = load i32, i32* %102, align 4
  %104 = getelementptr inbounds [6 x i32], [6 x i32]* %7, i64 0, i64 2
  %105 = load i32, i32* %104, align 8
  %106 = add nsw i32 %103, %105
  %107 = icmp eq i32 %106, 2
  br i1 %107, label %108, label %139

108:                                              ; preds = %71
  %109 = getelementptr inbounds [6 x i32], [6 x i32]* %7, i64 0, i64 3
  %110 = load i32, i32* %109, align 4
  %111 = getelementptr inbounds [6 x i32], [6 x i32]* %7, i64 0, i64 4
  %112 = load i32, i32* %111, align 16
  %113 = add nsw i32 %110, %112
  %114 = getelementptr inbounds [6 x i32], [6 x i32]* %7, i64 0, i64 5
  %115 = load i32, i32* %114, align 4
  %116 = add nsw i32 %113, %115
  %117 = icmp eq i32 %116, 0
  br i1 %117, label %118, label %139

118:                                              ; preds = %108
  %119 = load i32, i32* %6, align 4
  %120 = icmp ne i32 %119, 2
  br i1 %120, label %121, label %139

121:                                              ; preds = %118
  %122 = load i32, i32* %6, align 4
  %123 = icmp ne i32 %122, 3
  br i1 %123, label %124, label %139

124:                                              ; preds = %121
  %125 = load i32, i32* %2, align 4
  %126 = call dereferenceable(272) %"class.std::basic_ostream"* @_ZNSolsEi(%"class.std::basic_ostream"* @_ZSt4cout, i32 %125)
  %127 = call dereferenceable(272) %"class.std::basic_ostream"* @_ZStlsISt11char_traitsIcEERSt13basic_ostreamIcT_ES5_PKc(%"class.std::basic_ostream"* dereferenceable(272) %126, i8* getelementptr inbounds ([2 x i8], [2 x i8]* @.str, i64 0, i64 0))
  %128 = load i32, i32* %3, align 4
  %129 = call dereferenceable(272) %"class.std::basic_ostream"* @_ZNSolsEi(%"class.std::basic_ostream"* %127, i32 %128)
  %130 = call dereferenceable(272) %"class.std::basic_ostream"* @_ZStlsISt11char_traitsIcEERSt13basic_ostreamIcT_ES5_PKc(%"class.std::basic_ostream"* dereferenceable(272) %129, i8* getelementptr inbounds ([2 x i8], [2 x i8]* @.str, i64 0, i64 0))
  %131 = load i32, i32* %4, align 4
  %132 = call dereferenceable(272) %"class.std::basic_ostream"* @_ZNSolsEi(%"class.std::basic_ostream"* %130, i32 %131)
  %133 = call dereferenceable(272) %"class.std::basic_ostream"* @_ZStlsISt11char_traitsIcEERSt13basic_ostreamIcT_ES5_PKc(%"class.std::basic_ostream"* dereferenceable(272) %132, i8* getelementptr inbounds ([2 x i8], [2 x i8]* @.str, i64 0, i64 0))
  %134 = load i32, i32* %5, align 4
  %135 = call dereferenceable(272) %"class.std::basic_ostream"* @_ZNSolsEi(%"class.std::basic_ostream"* %133, i32 %134)
  %136 = call dereferenceable(272) %"class.std::basic_ostream"* @_ZStlsISt11char_traitsIcEERSt13basic_ostreamIcT_ES5_PKc(%"class.std::basic_ostream"* dereferenceable(272) %135, i8* getelementptr inbounds ([2 x i8], [2 x i8]* @.str, i64 0, i64 0))
  %137 = load i32, i32* %6, align 4
  %138 = call dereferenceable(272) %"class.std::basic_ostream"* @_ZNSolsEi(%"class.std::basic_ostream"* %136, i32 %137)
  br label %139

139:                                              ; preds = %124, %121, %118, %108, %71
  br label %140

140:                                              ; preds = %139, %70
  %141 = load i32, i32* %6, align 4
  %142 = add nsw i32 %141, 1
  store i32 %142, i32* %6, align 4
  br label %51

143:                                              ; preds = %51
  br label %144

144:                                              ; preds = %143, %49
  %145 = load i32, i32* %5, align 4
  %146 = add nsw i32 %145, 1
  store i32 %146, i32* %5, align 4
  br label %34

147:                                              ; preds = %34
  br label %148

148:                                              ; preds = %147, %32
  %149 = load i32, i32* %4, align 4
  %150 = add nsw i32 %149, 1
  store i32 %150, i32* %4, align 4
  br label %21

151:                                              ; preds = %21
  br label %152

152:                                              ; preds = %151, %19
  %153 = load i32, i32* %3, align 4
  %154 = add nsw i32 %153, 1
  store i32 %154, i32* %3, align 4
  br label %12

155:                                              ; preds = %12
  br label %156

156:                                              ; preds = %155
  %157 = load i32, i32* %2, align 4
  %158 = add nsw i32 %157, 1
  store i32 %158, i32* %2, align 4
  br label %8

159:                                              ; preds = %8
  %160 = load i32, i32* %1, align 4
  ret i32 %160
}

declare dso_local dereferenceable(272) %"class.std::basic_ostream"* @_ZStlsISt11char_traitsIcEERSt13basic_ostreamIcT_ES5_PKc(%"class.std::basic_ostream"* dereferenceable(272), i8*) #1

declare dso_local dereferenceable(272) %"class.std::basic_ostream"* @_ZNSolsEi(%"class.std::basic_ostream"*, i32) #1

; Function Attrs: noinline uwtable
define internal void @_GLOBAL__sub_I_664.cpp() #0 section ".text.startup" {
  call void @__cxx_global_var_init()
  ret void
}


!llvm.module.flags = !{!0}
!llvm.ident = !{!1}

!0 = !{i32 1, !"wchar_size", i32 4}
!1 = !{!"clang version 10.0.0-4ubuntu1 "}
